; ModuleID = '60/531.c'
source_filename = "60/531.c"
target datalayout = "e-m:e-p270:32:32-p271:32:32-p272:64:64-i64:64-f80:128-n8:16:32:64-S128"
target triple = "x86_64-pc-linux-gnu"

@.str = private unnamed_addr constant [3 x i8] c"%d\00", align 1
@.str.1 = private unnamed_addr constant [7 x i8] c"\0A%d %d\00", align 1
@.str.2 = private unnamed_addr constant [6 x i8] c"empty\00", align 1

; Function Attrs: noinline nounwind uwtable
define dso_local void @main() #0 {
  %1 = alloca i32, align 4
  %2 = alloca i32, align 4
  %3 = alloca i32, align 4
  %4 = alloca i32, align 4
  %5 = alloca i32, align 4
  store i32 0, i32* %5, align 4
  %6 = call i32 (i8*, ...) @__isoc99_scanf(i8* getelementptr inbounds ([3 x i8], [3 x i8]* @.str, i64 0, i64 0), i32* %1)
  store i32 2, i32* %2, align 4
  br label %7

7:                                                ; preds = %31, %0
  %8 = load i32, i32* %2, align 4
  %9 = load i32, i32* %1, align 4
  %10 = sub nsw i32 %9, 1
  %11 = icmp slt i32 %8, %10
  br i1 %11, label %12, label %34

12:                                               ; preds = %7
  %13 = load i32, i32* %2, align 4
  %14 = call i32 @sushu(i32 %13)
  store i32 %14, i32* %3, align 4
  %15 = load i32, i32* %2, align 4
  %16 = add nsw i32 %15, 2
  %17 = call i32 @sushu(i32 %16)
  store i32 %17, i32* %4, align 4
  %18 = load i32, i32* %3, align 4
  %19 = icmp eq i32 %18, 1
  br i1 %19, label %20, label %30

20:                                               ; preds = %12
  %21 = load i32, i32* %4, align 4
  %22 = icmp eq i32 %21, 1
  br i1 %22, label %23, label %30

23:                                               ; preds = %20
  %24 = load i32, i32* %2, align 4
  %25 = load i32, i32* %2, align 4
  %26 = add nsw i32 %25, 2
  %27 = call i32 (i8*, ...) @printf(i8* getelementptr inbounds ([7 x i8], [7 x i8]* @.str.1, i64 0, i64 0), i32 %24, i32 %26)
  %28 = load i32, i32* %5, align 4
  %29 = add nsw i32 %28, 1
  store i32 %29, i32* %5, align 4
  br label %30

30:                                               ; preds = %23, %20, %12
  br label %31

31:                                               ; preds = %30
  %32 = load i32, i32* %2, align 4
  %33 = add nsw i32 %32, 1
  store i32 %33, i32* %2, align 4
  br label %7

34:                                               ; preds = %7
  %35 = load i32, i32* %5, align 4
  %36 = icmp eq i32 %35, 0
  br i1 %36, label %37, label %39

37:                                               ; preds = %34
  %38 = call i32 (i8*, ...) @printf(i8* getelementptr inbounds ([6 x i8], [6 x i8]* @.str.2, i64 0, i64 0))
  br label %39

39:                                               ; preds = %37, %34
  ret void
}

declare dso_local i32 @__isoc99_scanf(i8*, ...) #1

; Function Attrs: noinline nounwind uwtable
define dso_local i32 @sushu(i32 %0) #0 {
  %2 = alloca i32, align 4
  %3 = alloca i32, align 4
  %4 = alloca i32, align 4
  %5 = alloca float, align 4
  store i32 %0, i32* %2, align 4
  store i32 1, i32* %4, align 4
  %6 = load i32, i32* %2, align 4
  %7 = sitofp i32 %6 to double
  %8 = call double @sqrt(double %7) #3
  %9 = fptrunc double %8 to float
  store float %9, float* %5, align 4
  store i32 2, i32* %3, align 4
  br label %10

10:                                               ; preds = %22, %1
  %11 = load i32, i32* %3, align 4
  %12 = sitofp i32 %11 to float
  %13 = load float, float* %5, align 4
  %14 = fcmp ole float %12, %13
  br i1 %14, label %15, label %25

15:                                               ; preds = %10
  %16 = load i32, i32* %2, align 4
  %17 = load i32, i32* %3, align 4
  %18 = srem i32 %16, %17
  %19 = icmp eq i32 %18, 0
  br i1 %19, label %20, label %21

20:                                               ; preds = %15
  store i32 0, i32* %4, align 4
  br label %25

21:                                               ; preds = %15
  br label %22

22:                                               ; preds = %21
  %23 = load i32, i32* %3, align 4
  %24 = add nsw i32 %23, 1
  store i32 %24, i32* %3, align 4
  br label %10

25:                                               ; preds = %20, %10
  %26 = load i32, i32* %4, align 4
  ret i32 %26
}

declare dso_local i32 @printf(i8*, ...) #1

; Function Attrs: nounwind
declare dso_local double @sqrt(double) #2


!llvm.module.flags = !{!0}
!llvm.ident = !{!1}

!0 = !{i32 1, !"wchar_size", i32 4}
!1 = !{!"clang version 10.0.0-4ubuntu1 "}
